; Function Attrs: mustprogress nounwind uwtable
define dso_local noundef zeroext i1 @_ZN16cmCoreTryCompile11IsTemporaryERKNSt7__cxx1112basic_stringIcSt11char_traitsIcESaIcEEE(ptr noundef nonnull align 8 dereferenceable(32) %0) local_unnamed_addr #5 align 2 {
  %2 = tail call noundef i64 @_ZNKSt7__cxx1112basic_stringIcSt11char_traitsIcESaIcEE4findEPKcm(ptr noundef nonnull align 8 dereferenceable(32) %0, ptr noundef nonnull @.str.317, i64 noundef 0) #21
  %.not = icmp eq i64 %2, -1
  br i1 %.not, label %3, label %6

3:                                                ; preds = %1
  %4 = tail call noundef i64 @_ZNKSt7__cxx1112basic_stringIcSt11char_traitsIcESaIcEE4findEPKcm(ptr noundef nonnull align 8 dereferenceable(32) %0, ptr noundef nonnull @.str.318, i64 noundef 0) #21
  %5 = icmp ne i64 %4, -1
  br label %6

6:                                                ; preds = %3, %1
  %7 = phi i1 [ true, %1 ], [ %5, %3 ]
  ret i1 %7
}